; Function Attrs: nounwind uwtable
define noundef ptr @Ivy_ManDfs(ptr noundef %0) local_unnamed_addr #0 {
.critedge:
  %1 = getelementptr inbounds nuw i8, ptr %0, i64 24
  %2 = getelementptr i8, ptr %0, i64 140
  %.val33 = load i32, ptr %2, align 4, !tbaa !24
  %3 = getelementptr i8, ptr %0, i64 144
  %.val34 = load i32, ptr %3, align 8, !tbaa !24
  %4 = add nsw i32 %.val34, %.val33
  %5 = tail call noalias dereferenceable_or_null(16) ptr @malloc(i64 noundef 16) #14
  %6 = add i32 %4, -1
  %or.cond.i = icmp ult i32 %6, 15
  %spec.store.select.i = select i1 %or.cond.i, i32 16, i32 %4
  %7 = getelementptr inbounds nuw i8, ptr %5, i64 4
  store i32 0, ptr %7, align 4, !tbaa !20
  store i32 %spec.store.select.i, ptr %5, align 8, !tbaa !22
  %.not.i = icmp eq i32 %spec.store.select.i, 0
  br i1 %.not.i, label %Vec_IntAlloc.exit, label %8

8:                                                ; preds = %.critedge
  %9 = sext i32 %spec.store.select.i to i64
  %10 = shl nsw i64 %9, 2
  %11 = tail call noalias ptr @malloc(i64 noundef %10) #14
  br label %Vec_IntAlloc.exit

Vec_IntAlloc.exit:                                ; preds = %.critedge, %8
  %12 = phi ptr [ %11, %8 ], [ null, %.critedge ]
  %13 = getelementptr inbounds nuw i8, ptr %5, i64 8
  store ptr %12, ptr %13, align 8, !tbaa !23
  %14 = getelementptr inbounds nuw i8, ptr %0, i64 8
  %15 = load ptr, ptr %14, align 8, !tbaa !25
  %16 = getelementptr i8, ptr %15, i64 4
  %.val2835 = load i32, ptr %16, align 4, !tbaa !26
  %17 = icmp sgt i32 %.val2835, 0
  br i1 %17, label %.lr.ph, label %.critedge2.preheader

.critedge2.preheader:                             ; preds = %.lr.ph, %Vec_IntAlloc.exit
  %18 = load ptr, ptr %1, align 8, !tbaa !28
  %19 = getelementptr i8, ptr %18, i64 4
  %.val2937 = load i32, ptr %19, align 4, !tbaa !26
  %20 = icmp sgt i32 %.val2937, 0
  br i1 %20, label %.lr.ph39, label %.critedge4

.lr.ph:                                           ; preds = %Vec_IntAlloc.exit, %.lr.ph
  %indvars.iv = phi i64 [ %indvars.iv.next, %.lr.ph ], [ 0, %Vec_IntAlloc.exit ]
  %21 = phi ptr [ %29, %.lr.ph ], [ %15, %Vec_IntAlloc.exit ]
  %22 = getelementptr i8, ptr %21, i64 8
  %.val31 = load ptr, ptr %22, align 8, !tbaa !29
  %23 = getelementptr inbounds nuw ptr, ptr %.val31, i64 %indvars.iv
  %24 = load ptr, ptr %23, align 8, !tbaa !30
  %25 = getelementptr i8, ptr %24, i64 16
  %.val = load ptr, ptr %25, align 8, !tbaa !18
  %26 = ptrtoint ptr %.val to i64
  %27 = and i64 %26, -2
  %28 = inttoptr i64 %27 to ptr
  tail call void @Ivy_ManDfs_rec(ptr noundef nonnull %0, ptr noundef %28, ptr noundef nonnull %5)
  %indvars.iv.next = add nuw nsw i64 %indvars.iv, 1
  %29 = load ptr, ptr %14, align 8, !tbaa !25
  %30 = getelementptr i8, ptr %29, i64 4
  %.val28 = load i32, ptr %30, align 4, !tbaa !26
  %31 = sext i32 %.val28 to i64
  %32 = icmp slt i64 %indvars.iv.next, %31
  br i1 %32, label %.lr.ph, label %.critedge2.preheader, !llvm.loop !31

.lr.ph39:                                         ; preds = %.critedge2.preheader, %.critedge2
  %33 = phi ptr [ %42, %.critedge2 ], [ %18, %.critedge2.preheader ]
  %indvars.iv41 = phi i64 [ %indvars.iv.next42, %.critedge2 ], [ 0, %.critedge2.preheader ]
  %34 = getelementptr i8, ptr %33, i64 8
  %.val32 = load ptr, ptr %34, align 8, !tbaa !29
  %35 = getelementptr inbounds nuw ptr, ptr %.val32, i64 %indvars.iv41
  %36 = load ptr, ptr %35, align 8, !tbaa !30
  %37 = icmp eq ptr %36, null
  br i1 %37, label %.critedge2, label %38

38:                                               ; preds = %.lr.ph39
  %39 = getelementptr inbounds nuw i8, ptr %36, i64 8
  %40 = load i32, ptr %39, align 8
  %41 = and i32 %40, -17
  store i32 %41, ptr %39, align 8
  %.pre = load ptr, ptr %1, align 8, !tbaa !28
  br label %.critedge2

.critedge2:                                       ; preds = %38, %.lr.ph39
  %42 = phi ptr [ %.pre, %38 ], [ %33, %.lr.ph39 ]
  %indvars.iv.next42 = add nuw nsw i64 %indvars.iv41, 1
  %43 = getelementptr i8, ptr %42, i64 4
  %.val29 = load i32, ptr %43, align 4, !tbaa !26
  %44 = sext i32 %.val29 to i64
  %45 = icmp slt i64 %indvars.iv.next42, %44
  br i1 %45, label %.lr.ph39, label %.critedge4, !llvm.loop !33

.critedge4:                                       ; preds = %.critedge2, %.critedge2.preheader
  ret ptr %5
}